target datalayout = "e-m:e-p270:32:32-p271:32:32-p272:64:64-i64:64-i128:128-f80:128-n8:16:32:64-S128"
target triple = "x86_64-pc-linux-gnu"

%struct.AVFormatContext = type { ptr, ptr, ptr, ptr, ptr, i32, i32, ptr, i32, ptr, i32, ptr, ptr, i64, i64, i64, i32, i32, i32, i64, i64, ptr, i32, i32, ptr, i32, i32, i32, i32, ptr, i64, i32, i32, %struct.AVIOInterruptCB, i32, i32, i32, i32, i64, i32, i32, i32, i32, i32, i32, i32, i32, i32, i32, i32, i32, i64, i32, i32, i32, i32, i32, ptr, ptr, ptr, ptr, i32, ptr, ptr, ptr, ptr, i32, ptr, ptr, i64, ptr, ptr, ptr, i64 }
%struct.AVIOInterruptCB = type { ptr, ptr }
%struct.SegmentContext = type { ptr, i32, i32, i32, i32, ptr, ptr, ptr, ptr, ptr, i32, i32, i32, i32, i64, i64, i64, i32, i32, ptr, i32, ptr, i64, i64, i32, i32, ptr, ptr, i32, ptr, ptr, i32, i32, i32, i64, i32, i32, ptr, i32, i64, ptr, i32, i64, i32, i32, i32, [1024 x i8], %struct.SegmentListEntry, ptr, ptr }
%struct.SegmentListEntry = type { i32, double, double, i64, i64, ptr, ptr, i64 }
%struct.AVIOContext = type { ptr, ptr, i32, ptr, ptr, ptr, ptr, ptr, ptr, i64, i32, i32, i32, i32, i32, i64, ptr, ptr, ptr, ptr, i32, i32, ptr, ptr, ptr, i32, ptr, i64, i64 }

; Function Attrs: nounwind uwtable
define internal void @close_null_ctxp(ptr noundef %0) #0 {
  %2 = alloca ptr, align 8
  store ptr %0, ptr %2, align 8, !tbaa !149
  %3 = load ptr, ptr %2, align 8, !tbaa !149
  %4 = load ptr, ptr %3, align 8, !tbaa !151
  %5 = getelementptr inbounds nuw %struct.AVIOContext, ptr %4, i32 0, i32 1
  call void @av_freep(ptr noundef %5)
  %6 = load ptr, ptr %2, align 8, !tbaa !149
  call void @avio_context_free(ptr noundef %6)
  ret void
}

; Function Attrs: nounwind uwtable
define internal void @seg_free(ptr noundef %0) #0 {
  %2 = alloca ptr, align 8
  %3 = alloca ptr, align 8
  %4 = alloca ptr, align 8
  %5 = alloca ptr, align 8
  store ptr %0, ptr %2, align 8, !tbaa !4
  call void @llvm.lifetime.start.p0(i64 8, ptr %3) #12
  %6 = load ptr, ptr %2, align 8, !tbaa !4
  %7 = getelementptr inbounds nuw %struct.AVFormatContext, ptr %6, i32 0, i32 3
  %8 = load ptr, ptr %7, align 8, !tbaa !9
  store ptr %8, ptr %3, align 8, !tbaa !26
  call void @llvm.lifetime.start.p0(i64 8, ptr %4) #12
  %9 = load ptr, ptr %2, align 8, !tbaa !4
  %10 = load ptr, ptr %3, align 8, !tbaa !26
  %11 = getelementptr inbounds nuw %struct.SegmentContext, ptr %10, i32 0, i32 21
  %12 = call i32 @ff_format_io_close(ptr noundef %9, ptr noundef %11)
  %13 = load ptr, ptr %3, align 8, !tbaa !26
  %14 = getelementptr inbounds nuw %struct.SegmentContext, ptr %13, i32 0, i32 6
  %15 = load ptr, ptr %14, align 8, !tbaa !28
  %16 = icmp ne ptr %15, null
  br i1 %16, label %17, label %40

17:                                               ; preds = %1
  %18 = load ptr, ptr %3, align 8, !tbaa !26
  %19 = getelementptr inbounds nuw %struct.SegmentContext, ptr %18, i32 0, i32 12
  %20 = load i32, ptr %19, align 8, !tbaa !39
  %21 = icmp ne i32 %20, 0
  br i1 %21, label %22, label %27

22:                                               ; preds = %17
  %23 = load ptr, ptr %3, align 8, !tbaa !26
  %24 = getelementptr inbounds nuw %struct.SegmentContext, ptr %23, i32 0, i32 6
  %25 = load ptr, ptr %24, align 8, !tbaa !28
  %26 = getelementptr inbounds nuw %struct.AVFormatContext, ptr %25, i32 0, i32 4
  call void @close_null_ctxp(ptr noundef %26)
  br label %34

27:                                               ; preds = %17
  %28 = load ptr, ptr %2, align 8, !tbaa !4
  %29 = load ptr, ptr %3, align 8, !tbaa !26
  %30 = getelementptr inbounds nuw %struct.SegmentContext, ptr %29, i32 0, i32 6
  %31 = load ptr, ptr %30, align 8, !tbaa !28
  %32 = getelementptr inbounds nuw %struct.AVFormatContext, ptr %31, i32 0, i32 4
  %33 = call i32 @ff_format_io_close(ptr noundef %28, ptr noundef %32)
  br label %34

34:                                               ; preds = %27, %22
  %35 = load ptr, ptr %3, align 8, !tbaa !26
  %36 = getelementptr inbounds nuw %struct.SegmentContext, ptr %35, i32 0, i32 6
  %37 = load ptr, ptr %36, align 8, !tbaa !28
  call void @avformat_free_context(ptr noundef %37)
  %38 = load ptr, ptr %3, align 8, !tbaa !26
  %39 = getelementptr inbounds nuw %struct.SegmentContext, ptr %38, i32 0, i32 6
  store ptr null, ptr %39, align 8, !tbaa !28
  br label %40

40:                                               ; preds = %34, %1
  %41 = load ptr, ptr %3, align 8, !tbaa !26
  %42 = getelementptr inbounds nuw %struct.SegmentContext, ptr %41, i32 0, i32 27
  call void @av_freep(ptr noundef %42)
  %43 = load ptr, ptr %3, align 8, !tbaa !26
  %44 = getelementptr inbounds nuw %struct.SegmentContext, ptr %43, i32 0, i32 30
  call void @av_freep(ptr noundef %44)
  %45 = load ptr, ptr %3, align 8, !tbaa !26
  %46 = getelementptr inbounds nuw %struct.SegmentContext, ptr %45, i32 0, i32 47
  %47 = getelementptr inbounds nuw %struct.SegmentListEntry, ptr %46, i32 0, i32 5
  call void @av_freep(ptr noundef %47)
  %48 = load ptr, ptr %3, align 8, !tbaa !26
  %49 = getelementptr inbounds nuw %struct.SegmentContext, ptr %48, i32 0, i32 48
  %50 = load ptr, ptr %49, align 8, !tbaa !130
  store ptr %50, ptr %4, align 8, !tbaa !131
  br label %51

51:                                               ; preds = %54, %40
  %52 = load ptr, ptr %4, align 8, !tbaa !131
  %53 = icmp ne ptr %52, null
  br i1 %53, label %54, label %62

54:                                               ; preds = %51
  call void @llvm.lifetime.start.p0(i64 8, ptr %5) #12
  %55 = load ptr, ptr %4, align 8, !tbaa !131
  %56 = getelementptr inbounds nuw %struct.SegmentListEntry, ptr %55, i32 0, i32 6
  %57 = load ptr, ptr %56, align 8, !tbaa !132
  store ptr %57, ptr %5, align 8, !tbaa !131
  %58 = load ptr, ptr %4, align 8, !tbaa !131
  %59 = getelementptr inbounds nuw %struct.SegmentListEntry, ptr %58, i32 0, i32 5
  call void @av_freep(ptr noundef %59)
  %60 = load ptr, ptr %4, align 8, !tbaa !131
  call void @av_free(ptr noundef %60)
  %61 = load ptr, ptr %5, align 8, !tbaa !131
  store ptr %61, ptr %4, align 8, !tbaa !131
  call void @llvm.lifetime.end.p0(i64 8, ptr %5) #12
  br label %51, !llvm.loop !133

62:                                               ; preds = %51
  call void @llvm.lifetime.end.p0(i64 8, ptr %4) #12
  call void @llvm.lifetime.end.p0(i64 8, ptr %3) #12
  ret void
}