; Function Attrs: nounwind uwtable
define internal void @seg_free(ptr noundef %0) #0 {
  %2 = getelementptr inbounds nuw i8, ptr %0, i64 24
  %3 = load ptr, ptr %2, align 8, !tbaa !4
  %4 = getelementptr inbounds nuw i8, ptr %3, i64 128
  %5 = tail call i32 @ff_format_io_close(ptr noundef %0, ptr noundef nonnull %4) #13
  %6 = getelementptr inbounds nuw i8, ptr %3, i64 32
  %7 = load ptr, ptr %6, align 8, !tbaa !24
  %.not = icmp eq ptr %7, null
  br i1 %.not, label %19, label %8

8:                                                ; preds = %1
  %9 = getelementptr inbounds nuw i8, ptr %3, i64 72
  %10 = load i32, ptr %9, align 8, !tbaa !36
  %.not20 = icmp eq i32 %10, 0
  %11 = getelementptr inbounds nuw i8, ptr %7, i64 32
  br i1 %.not20, label %15, label %12

12:                                               ; preds = %8
  %13 = load ptr, ptr %11, align 8, !tbaa !35
  %14 = getelementptr inbounds nuw i8, ptr %13, i64 8
  tail call void @av_freep(ptr noundef nonnull %14) #13
  tail call void @avio_context_free(ptr noundef nonnull %11) #13
  br label %17

15:                                               ; preds = %8
  %16 = tail call i32 @ff_format_io_close(ptr noundef nonnull %0, ptr noundef nonnull %11) #13
  br label %17

17:                                               ; preds = %15, %12
  %18 = load ptr, ptr %6, align 8, !tbaa !24
  tail call void @avformat_free_context(ptr noundef %18) #13
  store ptr null, ptr %6, align 8, !tbaa !24
  br label %19

19:                                               ; preds = %17, %1
  %20 = getelementptr inbounds nuw i8, ptr %3, i64 168
  tail call void @av_freep(ptr noundef nonnull %20) #13
  %21 = getelementptr inbounds nuw i8, ptr %3, i64 192
  tail call void @av_freep(ptr noundef nonnull %21) #13
  %22 = getelementptr inbounds nuw i8, ptr %3, i64 1360
  tail call void @av_freep(ptr noundef nonnull %22) #13
  %23 = getelementptr inbounds nuw i8, ptr %3, i64 1384
  %24 = load ptr, ptr %23, align 8, !tbaa !137
  %.not2122 = icmp eq ptr %24, null
  br i1 %.not2122, label %._crit_edge, label %.lr.ph

.lr.ph:                                           ; preds = %19, %.lr.ph
  %.023 = phi ptr [ %26, %.lr.ph ], [ %24, %19 ]
  %25 = getelementptr inbounds nuw i8, ptr %.023, i64 48
  %26 = load ptr, ptr %25, align 8, !tbaa !138
  %27 = getelementptr inbounds nuw i8, ptr %.023, i64 40
  tail call void @av_freep(ptr noundef nonnull %27) #13
  tail call void @av_free(ptr noundef nonnull %.023) #13
  %.not21 = icmp eq ptr %26, null
  br i1 %.not21, label %._crit_edge, label %.lr.ph, !llvm.loop !139

._crit_edge:                                      ; preds = %.lr.ph, %19
  ret void
}